; Function Attrs: nounwind uwtable
define dso_local range(i32 0, 2) i32 @nghttp2_session_want_read(ptr noundef %0) local_unnamed_addr #1 {
  %2 = getelementptr inbounds nuw i8, ptr %0, i64 2845
  %3 = load i8, ptr %2, align 1, !tbaa !4
  %4 = and i8 %3, 2
  %.not = icmp eq i8 %4, 0
  br i1 %.not, label %5, label %17

5:                                                ; preds = %1
  %6 = tail call i64 @nghttp2_map_size(ptr noundef nonnull %0) #20
  %7 = getelementptr inbounds nuw i8, ptr %0, i64 2656
  %8 = load i64, ptr %7, align 8, !tbaa !156
  %9 = getelementptr inbounds nuw i8, ptr %0, i64 2664
  %10 = load i64, ptr %9, align 8, !tbaa !127
  %11 = add i64 %10, %8
  %.not4 = icmp eq i64 %6, %11
  br i1 %.not4, label %12, label %17

12:                                               ; preds = %5
  %13 = load i8, ptr %2, align 1, !tbaa !4
  %14 = and i8 %13, 12
  %15 = icmp eq i8 %14, 0
  %16 = zext i1 %15 to i32
  br label %17

17:                                               ; preds = %5, %1, %12
  %.0 = phi i32 [ %16, %12 ], [ 0, %1 ], [ 1, %5 ]
  ret i32 %.0
}